target datalayout = "e-m:e-p270:32:32-p271:32:32-p272:64:64-i64:64-i128:128-f80:128-n8:16:32:64-S128"
target triple = "x86_64-pc-linux-gnu"

%"class.std::__cxx11::basic_string" = type { %"struct.std::__cxx11::basic_string<char>::_Alloc_hider", i64, %union.anon }
%"struct.std::__cxx11::basic_string<char>::_Alloc_hider" = type { ptr }
%union.anon = type { i64, [8 x i8] }
%class.cmCTestLaunch = type <{ %"class.std::vector", %"class.std::vector", i8, i8, i8, [5 x i8], %class.cmCTestLaunchReporter, i32, [4 x i8] }>
%"class.std::vector" = type { %"struct.std::_Vector_base" }
%"struct.std::_Vector_base" = type { %"struct.std::_Vector_base<std::__cxx11::basic_string<char>, std::allocator<std::__cxx11::basic_string<char>>>::_Vector_impl" }
%"struct.std::_Vector_base<std::__cxx11::basic_string<char>, std::allocator<std::__cxx11::basic_string<char>>>::_Vector_impl" = type { %"struct.std::_Vector_base<std::__cxx11::basic_string<char>, std::allocator<std::__cxx11::basic_string<char>>>::_Vector_impl_data" }
%"struct.std::_Vector_base<std::__cxx11::basic_string<char>, std::allocator<std::__cxx11::basic_string<char>>>::_Vector_impl_data" = type { ptr, ptr, ptr }
%class.cmCTestLaunchReporter = type { %"class.std::__cxx11::basic_string", %"class.std::__cxx11::basic_string", %"class.std::__cxx11::basic_string", %"class.std::__cxx11::basic_string", %"class.std::__cxx11::basic_string", %"class.std::__cxx11::basic_string", %"class.std::__cxx11::basic_string", %"class.std::__cxx11::basic_string", %"class.std::__cxx11::basic_string", %"class.std::__cxx11::basic_string", %"class.std::__cxx11::basic_string", %"class.std::vector", %"class.std::__cxx11::basic_string", i8, %"struct.cmUVProcessChain::Status", i32, %"class.std::__cxx11::basic_string", %"class.std::__cxx11::basic_string", %"class.std::__cxx11::basic_string", %"class.std::set", %"class.std::vector.6", %"class.std::vector.6", %"class.std::__cxx11::basic_string" }
%"struct.cmUVProcessChain::Status" = type { i32, i8, i64, i32 }
%"class.std::set" = type { %"class.std::_Rb_tree" }
%"class.std::_Rb_tree" = type { %"struct.std::_Rb_tree<std::__cxx11::basic_string<char>, std::__cxx11::basic_string<char>, std::_Identity<std::__cxx11::basic_string<char>>, std::less<std::__cxx11::basic_string<char>>>::_Rb_tree_impl" }
%"struct.std::_Rb_tree<std::__cxx11::basic_string<char>, std::__cxx11::basic_string<char>, std::_Identity<std::__cxx11::basic_string<char>>, std::less<std::__cxx11::basic_string<char>>>::_Rb_tree_impl" = type { [8 x i8], %"struct.std::_Rb_tree_header" }
%"struct.std::_Rb_tree_header" = type { %"struct.std::_Rb_tree_node_base", i64 }
%"struct.std::_Rb_tree_node_base" = type { i32, ptr, ptr, ptr }
%"class.std::vector.6" = type { %"struct.std::_Vector_base.7" }
%"struct.std::_Vector_base.7" = type { %"struct.std::_Vector_base<cmsys::RegularExpression, std::allocator<cmsys::RegularExpression>>::_Vector_impl" }
%"struct.std::_Vector_base<cmsys::RegularExpression, std::allocator<cmsys::RegularExpression>>::_Vector_impl" = type { %"struct.std::_Vector_base<cmsys::RegularExpression, std::allocator<cmsys::RegularExpression>>::_Vector_impl_data" }
%"struct.std::_Vector_base<cmsys::RegularExpression, std::allocator<cmsys::RegularExpression>>::_Vector_impl_data" = type { ptr, ptr, ptr }

@.str.25 = private unnamed_addr constant [8 x i8] c"Warning\00", align 1
@.str.26 = private unnamed_addr constant [16 x i8] c"WarningSuppress\00", align 1

; Function Attrs: mustprogress uwtable
define dso_local void @_ZN13cmCTestLaunch15LoadScrapeRulesEv(ptr noundef nonnull align 8 dereferenceable(732) %0) #5 align 2 {
  %2 = alloca ptr, align 8
  store ptr %0, ptr %2, align 8, !tbaa !20
  %3 = load ptr, ptr %2, align 8
  %4 = getelementptr inbounds nuw %class.cmCTestLaunch, ptr %3, i32 0, i32 4
  %5 = load i8, ptr %4, align 2, !tbaa !28, !range !73, !noundef !74
  %6 = trunc i8 %5 to i1
  br i1 %6, label %7, label %8

7:                                                ; preds = %1
  br label %14

8:                                                ; preds = %1
  %9 = getelementptr inbounds nuw %class.cmCTestLaunch, ptr %3, i32 0, i32 4
  store i8 1, ptr %9, align 2, !tbaa !28
  %10 = getelementptr inbounds nuw %class.cmCTestLaunch, ptr %3, i32 0, i32 6
  %11 = getelementptr inbounds nuw %class.cmCTestLaunchReporter, ptr %10, i32 0, i32 20
  call void @_ZNK13cmCTestLaunch15LoadScrapeRulesEPKcRSt6vectorIN5cmsys17RegularExpressionESaIS4_EE(ptr noundef nonnull align 8 dereferenceable(732) %3, ptr noundef @.str.25, ptr noundef nonnull align 8 dereferenceable(24) %11)
  %12 = getelementptr inbounds nuw %class.cmCTestLaunch, ptr %3, i32 0, i32 6
  %13 = getelementptr inbounds nuw %class.cmCTestLaunchReporter, ptr %12, i32 0, i32 21
  call void @_ZNK13cmCTestLaunch15LoadScrapeRulesEPKcRSt6vectorIN5cmsys17RegularExpressionESaIS4_EE(ptr noundef nonnull align 8 dereferenceable(732) %3, ptr noundef @.str.26, ptr noundef nonnull align 8 dereferenceable(24) %13)
  br label %14

14:                                               ; preds = %8, %7
  ret void
}