; Function Attrs: mustprogress uwtable
define dso_local void @_ZN13cmCTestLaunch15LoadScrapeRulesEv(ptr noundef nonnull align 8 dereferenceable(732) %0) local_unnamed_addr #5 align 2 {
  %2 = getelementptr inbounds nuw i8, ptr %0, i64 50
  %3 = load i8, ptr %2, align 2, !tbaa !4, !range !59, !noundef !60
  %4 = trunc nuw i8 %3 to i1
  br i1 %4, label %8, label %5

5:                                                ; preds = %1
  store i8 1, ptr %2, align 2, !tbaa !4
  %6 = getelementptr inbounds nuw i8, ptr %0, i64 648
  tail call void @_ZNK13cmCTestLaunch15LoadScrapeRulesEPKcRSt6vectorIN5cmsys17RegularExpressionESaIS4_EE(ptr noundef nonnull align 8 dereferenceable(732) %0, ptr noundef nonnull @.str.25, ptr noundef nonnull align 8 dereferenceable(24) %6)
  %7 = getelementptr inbounds nuw i8, ptr %0, i64 672
  tail call void @_ZNK13cmCTestLaunch15LoadScrapeRulesEPKcRSt6vectorIN5cmsys17RegularExpressionESaIS4_EE(ptr noundef nonnull align 8 dereferenceable(732) %0, ptr noundef nonnull @.str.26, ptr noundef nonnull align 8 dereferenceable(24) %7)
  br label %8

8:                                                ; preds = %1, %5
  ret void
}